target datalayout = "e-m:e-p270:32:32-p271:32:32-p272:64:64-i64:64-i128:128-f80:128-n8:16:32:64-S128"
target triple = "x86_64-pc-linux-gnu"

%struct.reftable_addition = type { %struct.reftable_flock, ptr, ptr, i64, i64, i64 }
%struct.reftable_flock = type { ptr, i32, ptr }

; Function Attrs: nounwind uwtable
define dso_local i32 @reftable_stack_new_addition(ptr noundef %0, ptr noundef %1, i32 noundef %2) #0 {
  %4 = alloca i32, align 4
  %5 = alloca ptr, align 8
  %6 = alloca ptr, align 8
  %7 = alloca i32, align 4
  %8 = alloca i32, align 4
  %9 = alloca %struct.reftable_addition, align 8
  %10 = alloca i32, align 4
  store ptr %0, ptr %5, align 8, !tbaa !91
  store ptr %1, ptr %6, align 8, !tbaa !13
  store i32 %2, ptr %7, align 4, !tbaa !15
  call void @llvm.lifetime.start.p0(i64 4, ptr %8) #10
  store i32 0, ptr %8, align 4, !tbaa !15
  call void @llvm.lifetime.start.p0(i64 64, ptr %9) #10
  call void @llvm.memset.p0.i64(ptr align 8 %9, i8 0, i64 64, i1 false)
  %11 = call ptr @reftable_calloc(i64 noundef 1, i64 noundef 64)
  %12 = load ptr, ptr %5, align 8, !tbaa !91
  store ptr %11, ptr %12, align 8, !tbaa !70
  %13 = load ptr, ptr %5, align 8, !tbaa !91
  %14 = load ptr, ptr %13, align 8, !tbaa !70
  %15 = icmp ne ptr %14, null
  br i1 %15, label %17, label %16

16:                                               ; preds = %3
  store i32 -13, ptr %4, align 4
  store i32 1, ptr %10, align 4
  br label %33

17:                                               ; preds = %3
  %18 = load ptr, ptr %5, align 8, !tbaa !91
  %19 = load ptr, ptr %18, align 8, !tbaa !70
  call void @llvm.memcpy.p0.p0.i64(ptr align 8 %19, ptr align 8 %9, i64 64, i1 false), !tbaa.struct !93
  %20 = load ptr, ptr %5, align 8, !tbaa !91
  %21 = load ptr, ptr %20, align 8, !tbaa !70
  %22 = load ptr, ptr %6, align 8, !tbaa !13
  %23 = load i32, ptr %7, align 4, !tbaa !15
  %24 = call i32 @reftable_stack_init_addition(ptr noundef %21, ptr noundef %22, i32 noundef %23)
  store i32 %24, ptr %8, align 4, !tbaa !15
  %25 = load i32, ptr %8, align 4, !tbaa !15
  %26 = icmp ne i32 %25, 0
  br i1 %26, label %27, label %31

27:                                               ; preds = %17
  %28 = load ptr, ptr %5, align 8, !tbaa !91
  %29 = load ptr, ptr %28, align 8, !tbaa !70
  call void @reftable_free(ptr noundef %29)
  %30 = load ptr, ptr %5, align 8, !tbaa !91
  store ptr null, ptr %30, align 8, !tbaa !70
  br label %31

31:                                               ; preds = %27, %17
  %32 = load i32, ptr %8, align 4, !tbaa !15
  store i32 %32, ptr %4, align 4
  store i32 1, ptr %10, align 4
  br label %33

33:                                               ; preds = %31, %16
  call void @llvm.lifetime.end.p0(i64 64, ptr %9) #10
  call void @llvm.lifetime.end.p0(i64 4, ptr %8) #10
  %34 = load i32, ptr %4, align 4
  ret i32 %34
}