; Function Attrs: nounwind uwtable
define dso_local i32 @reftable_stack_new_addition(ptr noundef captures(none) initializes((0, 8)) %0, ptr noundef %1, i32 noundef %2) local_unnamed_addr #0 {
  %4 = tail call ptr @reftable_calloc(i64 noundef 1, i64 noundef 64) #16
  store ptr %4, ptr %0, align 8, !tbaa !87
  %.not = icmp eq ptr %4, null
  br i1 %.not, label %10, label %5

5:                                                ; preds = %3
  tail call void @llvm.memset.p0.i64(ptr noundef nonnull align 8 dereferenceable(64) %4, i8 0, i64 64, i1 false)
  %6 = load ptr, ptr %0, align 8, !tbaa !87
  %7 = tail call fastcc i32 @reftable_stack_init_addition(ptr noundef %6, ptr noundef %1, i32 noundef %2)
  %.not11 = icmp eq i32 %7, 0
  br i1 %.not11, label %10, label %8

8:                                                ; preds = %5
  %9 = load ptr, ptr %0, align 8, !tbaa !87
  tail call void @reftable_free(ptr noundef %9) #16
  store ptr null, ptr %0, align 8, !tbaa !87
  br label %10

10:                                               ; preds = %5, %8, %3
  %.0 = phi i32 [ -13, %3 ], [ %7, %8 ], [ 0, %5 ]
  ret i32 %.0
}